; Function Attrs: nounwind uwtable
define dso_local void @spawn_subcmd_free(ptr noundef %0) local_unnamed_addr #0 {
  %2 = alloca ptr, align 8
  store ptr %0, ptr %2, align 8
  %.not = icmp eq ptr %0, null
  br i1 %.not, label %34, label %3

3:                                                ; preds = %1
  tail call void @slurm_xfree(ptr noundef nonnull %0) #10
  %4 = getelementptr inbounds nuw i8, ptr %0, i64 16
  %5 = load ptr, ptr %4, align 8
  %.not10 = icmp eq ptr %5, null
  br i1 %.not10, label %13, label %.preheader14

.preheader14:                                     ; preds = %3
  %6 = getelementptr inbounds nuw i8, ptr %0, i64 12
  %7 = load i32, ptr %6, align 4
  %.not26 = icmp eq i32 %7, 0
  br i1 %.not26, label %._crit_edge, label %.lr.ph

.lr.ph:                                           ; preds = %.preheader14, %.lr.ph
  %indvars.iv = phi i64 [ %indvars.iv.next, %.lr.ph ], [ 0, %.preheader14 ]
  %8 = load ptr, ptr %4, align 8
  %9 = getelementptr inbounds nuw ptr, ptr %8, i64 %indvars.iv
  tail call void @slurm_xfree(ptr noundef %9) #10
  %indvars.iv.next = add nuw nsw i64 %indvars.iv, 1
  %10 = load i32, ptr %6, align 4
  %11 = zext i32 %10 to i64
  %12 = icmp samesign ult i64 %indvars.iv.next, %11
  br i1 %12, label %.lr.ph, label %._crit_edge, !llvm.loop !8

._crit_edge:                                      ; preds = %.lr.ph, %.preheader14
  tail call void @slurm_xfree(ptr noundef nonnull %4) #10
  br label %13

13:                                               ; preds = %._crit_edge, %3
  %14 = getelementptr inbounds nuw i8, ptr %0, i64 32
  %15 = load ptr, ptr %14, align 8
  %.not11 = icmp eq ptr %15, null
  br i1 %.not11, label %23, label %.preheader13

.preheader13:                                     ; preds = %13
  %16 = getelementptr inbounds nuw i8, ptr %0, i64 24
  %17 = load i32, ptr %16, align 8
  %.not27 = icmp eq i32 %17, 0
  br i1 %.not27, label %._crit_edge20, label %.lr.ph19

.lr.ph19:                                         ; preds = %.preheader13, %.lr.ph19
  %indvars.iv30 = phi i64 [ %indvars.iv.next31, %.lr.ph19 ], [ 0, %.preheader13 ]
  %18 = load ptr, ptr %14, align 8
  %19 = getelementptr inbounds nuw ptr, ptr %18, i64 %indvars.iv30
  tail call void @slurm_xfree(ptr noundef %19) #10
  %indvars.iv.next31 = add nuw nsw i64 %indvars.iv30, 1
  %20 = load i32, ptr %16, align 8
  %21 = zext i32 %20 to i64
  %22 = icmp samesign ult i64 %indvars.iv.next31, %21
  br i1 %22, label %.lr.ph19, label %._crit_edge20, !llvm.loop !11

._crit_edge20:                                    ; preds = %.lr.ph19, %.preheader13
  tail call void @slurm_xfree(ptr noundef nonnull %14) #10
  br label %23

23:                                               ; preds = %._crit_edge20, %13
  %24 = getelementptr inbounds nuw i8, ptr %0, i64 40
  %25 = load ptr, ptr %24, align 8
  %.not12 = icmp eq ptr %25, null
  br i1 %.not12, label %33, label %.preheader

.preheader:                                       ; preds = %23
  %26 = getelementptr inbounds nuw i8, ptr %0, i64 24
  %27 = load i32, ptr %26, align 8
  %.not28 = icmp eq i32 %27, 0
  br i1 %.not28, label %._crit_edge24, label %.lr.ph23

.lr.ph23:                                         ; preds = %.preheader, %.lr.ph23
  %indvars.iv33 = phi i64 [ %indvars.iv.next34, %.lr.ph23 ], [ 0, %.preheader ]
  %28 = load ptr, ptr %24, align 8
  %29 = getelementptr inbounds nuw ptr, ptr %28, i64 %indvars.iv33
  tail call void @slurm_xfree(ptr noundef %29) #10
  %indvars.iv.next34 = add nuw nsw i64 %indvars.iv33, 1
  %30 = load i32, ptr %26, align 8
  %31 = zext i32 %30 to i64
  %32 = icmp samesign ult i64 %indvars.iv.next34, %31
  br i1 %32, label %.lr.ph23, label %._crit_edge24, !llvm.loop !12

._crit_edge24:                                    ; preds = %.lr.ph23, %.preheader
  tail call void @slurm_xfree(ptr noundef nonnull %24) #10
  br label %33

33:                                               ; preds = %._crit_edge24, %23
  call void @slurm_xfree(ptr noundef nonnull %2) #10
  br label %34

34:                                               ; preds = %33, %1
  ret void
}